; Function Attrs: nounwind uwtable
define hidden void @ERR_remove_thread_state(ptr noundef readnone captures(address_is_null) %0) local_unnamed_addr #0 {
  %.not = icmp eq ptr %0, null
  br i1 %.not, label %2, label %3

2:                                                ; preds = %1
  tail call void @ERR_clear_error()
  br label %3

3:                                                ; preds = %1, %2
  ret void
}